(isimulations_permutations
Simulator
p0
(dp1
S'simulationProbabilities'
p2
(isimulations_permutations
SimulationProbabilities
p3
(dp4
S'armProbabilities'
p5
(lp6
(S'1p'
p7
S'A,B'
p8
S'0.250000'
p9
S'0.125000'
p10
tp11
a(S'1q'
p12
S'A,B'
p13
S'0.250000'
p14
S'0.500000'
p15
tp16
a(S'2p'
p17
S'A,B'
p18
S'0.250000'
p19
S'0.125000'
p20
tp21
a(S'2q'
p22
S'A,B'
p23
S'0.250000'
p24
S'0.125000'
p25
tp26
a(S'3p'
p27
S'A,B'
p28
S'0.250000'
p29
S'0.125000'
p30
tp31
a(S'3q'
p32
S'A,B'
p33
S'0.250000'
p34
S'0.125000'
p35
tp36
a(S'4p'
p37
S'A,B'
p38
S'1.000000'
p39
S'0.125000'
p40
tp41
a(S'4q'
p42
S'A,B'
p43
S'1.000000'
p44
S'0.125000'
p45
tp46
a(S'5p'
p47
S'A,B'
p48
S'1.000000'
p49
S'0.125000'
p50
tp51
a(S'5q'
p52
S'A,B'
p53
S'1.000000'
p54
S'0.125000'
p55
tp56
a(S'6p'
p57
S'A,B'
p58
S'0.250000'
p59
S'0.125000'
p60
tp61
a(S'6q'
p62
S'A,B'
p63
S'0.250000'
p64
S'0.125000'
p65
tp66
a(S'7p'
p67
S'A,B'
p68
S'0.250000'
p69
S'0.500000'
p70
tp71
a(S'7q'
p72
S'A,B'
p73
S'0.250000'
p74
S'0.500000'
p75
tp76
a(S'8p'
p77
S'A,B'
p78
S'0.250000'
p79
S'0.500000'
p80
tp81
a(S'8q'
p82
S'A,B'
p83
S'0.250000'
p84
S'0.500000'
p85
tp86
a(S'9p'
p87
S'A,B'
p88
S'1.000000'
p89
S'0.125000'
p90
tp91
a(S'9q'
p92
S'A,B'
p93
S'1.000000'
p94
S'0.125000'
p95
tp96
a(S'10p'
p97
S'A,B'
p98
S'1.000000'
p99
S'0.125000'
p100
tp101
a(S'10q'
p102
S'A,B'
p103
S'1.000000'
p104
S'0.125000'
p105
tp106
a(S'11p'
p107
S'A,B'
p108
S'1.000000'
p109
S'0.125000'
p110
tp111
a(S'11q'
p112
S'A,B'
p113
S'1.000000'
p114
S'0.125000'
p115
tp116
a(S'12p'
p117
S'A,B'
p118
S'0.125000'
p119
S'0.000000'
p120
tp121
a(S'12q'
p122
S'A,B'
p123
S'0.250000'
p124
S'0.250000'
p125
tp126
a(S'13q'
p127
S'A,B'
p128
S'1.000000'
p129
S'0.125000'
p130
tp131
a(S'14q'
p132
S'A,B'
p133
S'0.250000'
p134
S'0.125000'
p135
tp136
a(S'15q'
p137
S'A,B'
p138
S'0.250000'
p139
S'0.125000'
p140
tp141
a(S'16p'
p142
S'A,B'
p143
S'0.250000'
p144
S'0.125000'
p145
tp146
a(S'16q'
p147
S'A,B'
p148
S'0.250000'
p149
S'0.125000'
p150
tp151
a(S'17p'
p152
S'A,B'
p153
S'0.250000'
p154
S'0.125000'
p155
tp156
a(S'17q'
p157
S'A,B'
p158
S'0.250000'
p159
S'0.125000'
p160
tp161
a(S'18p'
p162
S'A,B'
p163
S'1.000000'
p164
S'0.125000'
p165
tp166
a(S'18q'
p167
S'A,B'
p168
S'1.000000'
p169
S'0.125000'
p170
tp171
a(S'19p'
p172
S'A,B'
p173
S'0.500000'
p174
S'0.250000'
p175
tp176
a(S'19q'
p177
S'A,B'
p178
S'0.500000'
p179
S'0.250000'
p180
tp181
a(S'20p'
p182
S'A,B'
p183
S'0.250000'
p184
S'0.125000'
p185
tp186
a(S'20q'
p187
S'A,B'
p188
S'0.250000'
p189
S'0.125000'
p190
tp191
a(S'21q'
p192
S'A,B'
p193
S'0.250000'
p194
S'0.125000'
p195
tp196
a(S'22q'
p197
S'A,B'
p198
S'0.250000'
p199
S'0.125000'
p200
tp201
asS'somaticVariants'
p202
(lp203
(isomaticVariants
SomaticVariant
p204
(dp205
S'ind'
p206
I0
sS'position'
p207
S'11288744'
p208
sS'value'
p209
I0
sS'chromosome'
p210
S'1p'
p211
sS'alleles'
p212
(lp213
sba(isomaticVariants
SomaticVariant
p214
(dp215
g206
I1
sg207
S'51254778'
p216
sg209
I0
sg210
S'2p'
p217
sg212
(lp218
sba(isomaticVariants
SomaticVariant
p219
(dp220
g206
I2
sg207
S'73900090'
p221
sg209
I0
sg210
S'2p'
p222
sg212
(lp223
sba(isomaticVariants
SomaticVariant
p224
(dp225
g206
I3
sg207
S'140604829'
p226
sg209
I0
sg210
S'2q'
p227
sg212
(lp228
sba(isomaticVariants
SomaticVariant
p229
(dp230
g206
I4
sg207
S'235941695'
p231
sg209
I0
sg210
S'2q'
p232
sg212
(lp233
sba(isomaticVariants
SomaticVariant
p234
(dp235
g206
I5
sg207
S'84687827'
p236
sg209
I0
sg210
S'3p'
p237
sg212
(lp238
sba(isomaticVariants
SomaticVariant
p239
(dp240
g206
I6
sg207
S'7436702'
p241
sg209
I0
sg210
S'4p'
p242
sg212
(lp243
sba(isomaticVariants
SomaticVariant
p244
(dp245
g206
I7
sg207
S'149766375'
p246
sg209
I0
sg210
S'4p'
p247
sg212
(lp248
sba(isomaticVariants
SomaticVariant
p249
(dp250
g206
I8
sg207
S'168860531'
p251
sg209
I0
sg210
S'4q'
p252
sg212
(lp253
sba(isomaticVariants
SomaticVariant
p254
(dp255
g206
I9
sg207
S'176918124'
p256
sg209
I0
sg210
S'5q'
p257
sg212
(lp258
sba(isomaticVariants
SomaticVariant
p259
(dp260
g206
I10
sg207
S'93823462'
p261
sg209
I0
sg210
S'6q'
p262
sg212
(lp263
sba(isomaticVariants
SomaticVariant
p264
(dp265
g206
I11
sg207
S'7929394'
p266
sg209
I0
sg210
S'7q'
p267
sg212
(lp268
sba(isomaticVariants
SomaticVariant
p269
(dp270
g206
I12
sg207
S'121788354'
p271
sg209
I0
sg210
S'8q'
p272
sg212
(lp273
sba(isomaticVariants
SomaticVariant
p274
(dp275
g206
I13
sg207
S'120004968'
p276
sg209
I0
sg210
S'9q'
p277
sg212
(lp278
sba(isomaticVariants
SomaticVariant
p279
(dp280
g206
I14
sg207
S'6292669'
p281
sg209
I0
sg210
S'11p'
p282
sg212
(lp283
sba(isomaticVariants
SomaticVariant
p284
(dp285
g206
I15
sg207
S'7646557'
p286
sg209
I0
sg210
S'12p'
p287
sg212
(lp288
sba(isomaticVariants
SomaticVariant
p289
(dp290
g206
I16
sg207
S'26891621'
p291
sg209
I0
sg210
S'12p'
p292
sg212
(lp293
sba(isomaticVariants
SomaticVariant
p294
(dp295
g206
I17
sg207
S'120531677'
p296
sg209
I0
sg210
S'12q'
p297
sg212
(lp298
sba(isomaticVariants
SomaticVariant
p299
(dp300
g206
I18
sg207
S'78997132'
p301
sg209
I0
sg210
S'13q'
p302
sg212
(lp303
sba(isomaticVariants
SomaticVariant
p304
(dp305
g206
I19
sg207
S'39244541'
p306
sg209
I0
sg210
S'14q'
p307
sg212
(lp308
sba(isomaticVariants
SomaticVariant
p309
(dp310
g206
I20
sg207
S'57244390'
p311
sg209
I0
sg210
S'14q'
p312
sg212
(lp313
sba(isomaticVariants
SomaticVariant
p314
(dp315
g206
I21
sg207
S'66029239'
p316
sg209
I0
sg210
S'14q'
p317
sg212
(lp318
sba(isomaticVariants
SomaticVariant
p319
(dp320
g206
I22
sg207
S'79111653'
p321
sg209
I0
sg210
S'14q'
p322
sg212
(lp323
sba(isomaticVariants
SomaticVariant
p324
(dp325
g206
I23
sg207
S'85571465'
p326
sg209
I0
sg210
S'14q'
p327
sg212
(lp328
sba(isomaticVariants
SomaticVariant
p329
(dp330
g206
I24
sg207
S'88263484'
p331
sg209
I0
sg210
S'14q'
p332
sg212
(lp333
sba(isomaticVariants
SomaticVariant
p334
(dp335
g206
I25
sg207
S'97553881'
p336
sg209
I0
sg210
S'14q'
p337
sg212
(lp338
sba(isomaticVariants
SomaticVariant
p339
(dp340
g206
I26
sg207
S'101292486'
p341
sg209
I0
sg210
S'14q'
p342
sg212
(lp343
sba(isomaticVariants
SomaticVariant
p344
(dp345
g206
I27
sg207
S'57931651'
p346
sg209
I0
sg210
S'15q'
p347
sg212
(lp348
sba(isomaticVariants
SomaticVariant
p349
(dp350
g206
I28
sg207
S'100122868'
p351
sg209
I0
sg210
S'15q'
p352
sg212
(lp353
sba(isomaticVariants
SomaticVariant
p354
(dp355
g206
I29
sg207
S'25160277'
p356
sg209
I0
sg210
S'16p'
p357
sg212
(lp358
sba(isomaticVariants
SomaticVariant
p359
(dp360
g206
I30
sg207
S'8784067'
p361
sg209
I0
sg210
S'17p'
p362
sg212
(lp363
sba(isomaticVariants
SomaticVariant
p364
(dp365
g206
I31
sg207
S'48750825'
p366
sg209
I0
sg210
S'17q'
p367
sg212
(lp368
sba(isomaticVariants
SomaticVariant
p369
(dp370
g206
I32
sg207
S'43431452'
p371
sg209
I0
sg210
S'18q'
p372
sg212
(lp373
sba(isomaticVariants
SomaticVariant
p374
(dp375
g206
I33
sg207
S'20900050'
p376
sg209
I0
sg210
S'22q'
p377
sg212
(lp378
sba(isomaticVariants
SomaticVariant
p379
(dp380
g206
I34
sg207
S'48201474'
p381
sg209
I0
sg210
S'22q'
p382
sg212
(lp383
sbasbsS'variantPositions'
p384
(lp385
I0
aI30
aI31
aI45
aI56
aI61
aI62
aI71
aI82
aI96
aI119
aI125
aI145
aI168
aI198
aI235
aI268
aI272
aI282
aI292
aI313
aI317
aI321
aI322
aI323
aI324
aI327
aI328
aI333
aI337
aI340
aI341
aI354
aI359
aI371
aI441
asS'numberOfMeasurements'
p386
I427
sb.